; Function Attrs: nounwind uwtable
define ptr @avcodec_parameters_alloc() local_unnamed_addr #0 {
  %1 = tail call noalias ptr @av_mallocz(i64 noundef 176) #5
  %.not = icmp eq ptr %1, null
  br i1 %.not, label %15, label %2

2:                                                ; preds = %0
  %3 = getelementptr inbounds nuw i8, ptr %1, i64 16
  tail call void @av_freep(ptr noundef nonnull %3) #5
  %4 = getelementptr inbounds nuw i8, ptr %1, i64 128
  tail call void @av_channel_layout_uninit(ptr noundef nonnull %4) #5
  %5 = getelementptr inbounds nuw i8, ptr %1, i64 32
  %6 = getelementptr inbounds nuw i8, ptr %1, i64 40
  tail call void @av_packet_side_data_free(ptr noundef nonnull %5, ptr noundef nonnull %6) #5
  %7 = getelementptr inbounds nuw i8, ptr %1, i64 8
  tail call void @llvm.memset.p0.i64(ptr noundef nonnull align 8 dereferenceable(168) %7, i8 0, i64 168, i1 false)
  store i32 -1, ptr %1, align 8, !tbaa !4
  %8 = getelementptr inbounds nuw i8, ptr %1, i64 4
  store i32 0, ptr %8, align 4, !tbaa !15
  %9 = getelementptr inbounds nuw i8, ptr %1, i64 44
  store i32 -1, ptr %9, align 4, !tbaa !16
  %10 = getelementptr inbounds nuw i8, ptr %1, i64 104
  store i32 2, ptr %10, align 8, !tbaa !17
  %11 = getelementptr inbounds nuw i8, ptr %1, i64 108
  store i32 2, ptr %11, align 4, !tbaa !18
  %12 = getelementptr inbounds nuw i8, ptr %1, i64 112
  store i32 2, ptr %12, align 8, !tbaa !19
  %.sroa.22.0..sroa_idx.i = getelementptr inbounds nuw i8, ptr %1, i64 84
  store i32 1, ptr %.sroa.22.0..sroa_idx.i, align 4, !tbaa !20
  %.sroa.2.0..sroa_idx.i = getelementptr inbounds nuw i8, ptr %1, i64 92
  store i32 1, ptr %.sroa.2.0..sroa_idx.i, align 4, !tbaa !20
  %13 = getelementptr inbounds nuw i8, ptr %1, i64 64
  store i32 -99, ptr %13, align 8, !tbaa !21
  %14 = getelementptr inbounds nuw i8, ptr %1, i64 68
  store i32 -99, ptr %14, align 4, !tbaa !22
  br label %15

15:                                               ; preds = %0, %2
  ret ptr %1
}